   1              		.cpu arm7tdmi
   2              		.fpu softvfp
   3              		.eabi_attribute 20, 1
   4              		.eabi_attribute 21, 1
   5              		.eabi_attribute 23, 3
   6              		.eabi_attribute 24, 1
   7              		.eabi_attribute 25, 1
   8              		.eabi_attribute 26, 1
   9              		.eabi_attribute 30, 6
  10              		.eabi_attribute 18, 4
  11              		.file	"main.c"
  21              	.Ltext0:
  22              		.file 1 "../main.c"
 3637              		.align	2
 3638              		.global	Main
 3640              	Main:
 3641              	.LFB0:
   1:../main.c     **** /*********************************************************************************************
   2:../main.c     **** * Fichero:	main.c
   3:../main.c     **** * Autor:
   4:../main.c     **** * Descrip:	punto de entrada de C
   5:../main.c     **** * Version:  <P4-ARM.timer-leds>
   6:../main.c     **** *********************************************************************************************/
   7:../main.c     **** #include <inttypes.h>
   8:../main.c     **** /*--- ficheros de cabecera ---*/
   9:../main.c     **** #include "44blib.h"
  10:../main.c     **** #include "44b.h"
  11:../main.c     **** #include "stdio.h"
  12:../main.c     **** 
  13:../main.c     **** /*--- variables globales ---*/
  14:../main.c     **** extern int switch_leds;
  15:../main.c     **** 
  16:../main.c     **** /*--- funciones externas ---*/
  17:../main.c     **** extern void leds_off();
  18:../main.c     **** extern void led1_on();
  19:../main.c     **** extern void leds_switch();
  20:../main.c     **** extern void timer_init();
  21:../main.c     **** extern void Eint4567_init();
  22:../main.c     **** extern void D8Led_init();
  23:../main.c     **** 
  24:../main.c     **** /*--- declaracion de funciones ---*/
  25:../main.c     **** void Main(void);
  26:../main.c     **** 
  27:../main.c     **** /*--- codigo de funciones ---*/
  28:../main.c     **** void Main(void)
  29:../main.c     **** {
 3642              		.loc 1 29 0
 3643              		.cfi_startproc
 3644              		@ Function supports interworking.
 3645              		@ args = 0, pretend = 0, frame = 8
 3646              		@ frame_needed = 1, uses_anonymous_args = 0
 3647 0000 0DC0A0E1 		mov	ip, sp
 3648              	.LCFI0:
 3649              		.cfi_def_cfa_register 12
 3650 0004 00D82DE9 		stmfd	sp!, {fp, ip, lr, pc}
 3651 0008 04B04CE2 		sub	fp, ip, #4
 3652              		.cfi_offset 14, -8
 3653              		.cfi_offset 13, -12
 3654              		.cfi_offset 11, -16
 3655              	.LCFI1:
 3656              		.cfi_def_cfa 11, 4
 3657 000c 08D04DE2 		sub	sp, sp, #8
  30:../main.c     **** 	uint32_t start = 0;
 3658              		.loc 1 30 0
 3659 0010 0030A0E3 		mov	r3, #0
 3660 0014 10300BE5 		str	r3, [fp, #-16]
  31:../main.c     **** 	uint32_t end = 0;
 3661              		.loc 1 31 0
 3662 0018 0030A0E3 		mov	r3, #0
 3663 001c 14300BE5 		str	r3, [fp, #-20]
  32:../main.c     **** 
  33:../main.c     **** 	/* Inicializa controladores */
  34:../main.c     **** 	sys_init();        // Inicializacion de la placa, interrupciones y puertos
 3664              		.loc 1 34 0
 3665 0020 FEFFFFEB 		bl	sys_init
  35:../main.c     **** 	timer2_inicializar();	   // Inicializacion del temporizador
 3666              		.loc 1 35 0
 3667 0024 FEFFFFEB 		bl	timer2_inicializar
  36:../main.c     **** 	Eint4567_init();	// inicializamos los pulsadores. Cada vez que se pulse se verá reflejado en el 8l
 3668              		.loc 1 36 0
 3669 0028 FEFFFFEB 		bl	Eint4567_init
  37:../main.c     **** 	D8Led_init(); // inicializamos el 8led
 3670              		.loc 1 37 0
 3671 002c FEFFFFEB 		bl	D8Led_init
  38:../main.c     **** 
  39:../main.c     **** 	/* Valor inicial de los leds */
  40:../main.c     **** 	leds_off();
 3672              		.loc 1 40 0
 3673 0030 FEFFFFEB 		bl	leds_off
  41:../main.c     **** 	led1_on();
 3674              		.loc 1 41 0
 3675 0034 FEFFFFEB 		bl	led1_on
 3676              	.L2:
 3677              	.LBB2:
  42:../main.c     **** 
  43:../main.c     **** 	while (1)
  44:../main.c     **** 	{
  45:../main.c     **** 		start = timer2_leer();
 3678              		.loc 1 45 0 discriminator 1
 3679 0038 FEFFFFEB 		bl	timer2_leer
 3680 003c 0030A0E1 		mov	r3, r0
 3681 0040 10300BE5 		str	r3, [fp, #-16]
  46:../main.c     **** 		timer2_empezar();
 3682              		.loc 1 46 0 discriminator 1
 3683 0044 FEFFFFEB 		bl	timer2_empezar
  47:../main.c     **** 		end = timer2_leer();
 3684              		.loc 1 47 0 discriminator 1
 3685 0048 FEFFFFEB 		bl	timer2_leer
 3686 004c 0030A0E1 		mov	r3, r0
 3687 0050 14300BE5 		str	r3, [fp, #-20]
 3688              	.LBE2:
  48:../main.c     **** 
  49:../main.c     **** 		/* Cambia los leds con cada interrupcion del temporizador */
  50:../main.c     **** 		//if (switch_leds == 1)
  51:../main.c     **** 		{
  52:../main.c     **** //			leds_switch();
  53:../main.c     **** 			//switch_leds = 0;
  54:../main.c     **** 		}
  55:../main.c     **** 	}
 3689              		.loc 1 55 0 discriminator 1
 3690 0054 F7FFFFEA 		b	.L2
 3691              		.cfi_endproc
 3692              	.LFE0:
 3694              	.Letext0: