   1              		.cpu arm7tdmi
   2              		.fpu softvfp
   3              		.eabi_attribute 20, 1
   4              		.eabi_attribute 21, 1
   5              		.eabi_attribute 23, 3
   6              		.eabi_attribute 24, 1
   7              		.eabi_attribute 25, 1
   8              		.eabi_attribute 26, 1
   9              		.eabi_attribute 30, 6
  10              		.eabi_attribute 18, 4
  11              		.file	"timer2.c"
  21              	.Ltext0:
  22              		.file 1 "../timer2.c"
 2692              	switch_leds2:
 2693 0000 00       		.space	1
 2694              		.global	timer2_num_int
 2695 0001 000000   		.align	2
 2698              	timer2_num_int:
 2699 0004 00000000 		.space	4
 2700              		.text
 2701              		.align	2
 2702              		.global	timer2_ISR
 2704              	timer2_ISR:
 2705              	.LFB0:
   1:../timer2.c   **** #include <inttypes.h>
   2:../timer2.c   **** #include "44b.h"
   3:../timer2.c   **** #include "44blib.h"
   4:../timer2.c   **** 
   5:../timer2.c   **** uint8_t switch_leds2 = 0;
   6:../timer2.c   **** uint32_t timer2_num_int = 0;
   7:../timer2.c   **** 
   8:../timer2.c   **** void timer2_ISR(void) __attribute__((interrupt("IRQ")));
   9:../timer2.c   **** 
  10:../timer2.c   **** void timer2_ISR(void)
  11:../timer2.c   **** {
 2706              		.loc 1 11 0
 2707              		.cfi_startproc
 2708              		@ Interrupt Service Routine.
 2709              		@ args = 0, pretend = 0, frame = 0
 2710              		@ frame_needed = 1, uses_anonymous_args = 0
 2711 0000 04C02DE5 		str	ip, [sp, #-4]!
 2712 0004 0DC0A0E1 		mov	ip, sp
 2713              	.LCFI0:
 2714              		.cfi_def_cfa_register 12
 2715 0008 0CD82DE9 		stmfd	sp!, {r2, r3, fp, ip, lr, pc}
 2716 000c 04B04CE2 		sub	fp, ip, #4
 2717              		.cfi_offset 14, -8
 2718              		.cfi_offset 13, -12
 2719              		.cfi_offset 11, -16
 2720              		.cfi_offset 3, -20
 2721              		.cfi_offset 2, -24
 2722              	.LCFI1:
 2723              		.cfi_def_cfa 11, 4
  12:../timer2.c   **** 	switch_leds2 = 1;
 2724              		.loc 1 12 0
 2725 0010 3C309FE5 		ldr	r3, .L2
 2726 0014 0120A0E3 		mov	r2, #1
 2727 0018 0020C3E5 		strb	r2, [r3, #0]
  13:../timer2.c   **** 	timer2_num_int++;
 2728              		.loc 1 13 0
 2729 001c 34309FE5 		ldr	r3, .L2+4
 2730 0020 003093E5 		ldr	r3, [r3, #0]
 2731 0024 012083E2 		add	r2, r3, #1
 2732 0028 28309FE5 		ldr	r3, .L2+4
 2733 002c 002083E5 		str	r2, [r3, #0]
  14:../timer2.c   **** 	/* borrar bit en I_ISPC para desactivar la solicitud de interrupción*/
  15:../timer2.c   **** 	rI_ISPC |= BIT_TIMER2; // BIT_TIMER2 está definido en 44b.h y pone un uno en el bit 11 que correpo
 2734              		.loc 1 15 0
 2735 0030 24309FE5 		ldr	r3, .L2+8
 2736 0034 20209FE5 		ldr	r2, .L2+8
 2737 0038 002092E5 		ldr	r2, [r2, #0]
 2738 003c 022B82E3 		orr	r2, r2, #2048
 2739 0040 002083E5 		str	r2, [r3, #0]
  16:../timer2.c   **** }
 2740              		.loc 1 16 0
 2741 0044 14D04BE2 		sub	sp, fp, #20
 2742 0048 0C689DE8 		ldmfd	sp, {r2, r3, fp, sp, lr}
 2743 004c 04C09DE4 		ldmfd	sp!, {ip}
 2744 0050 04F05EE2 		subs	pc, lr, #4
 2745              	.L3:
 2746              		.align	2
 2747              	.L2:
 2748 0054 00000000 		.word	switch_leds2
 2749 0058 00000000 		.word	timer2_num_int
 2750 005c 2400E001 		.word	31457316
 2751              		.cfi_endproc
 2752              	.LFE0:
 2754              		.align	2
 2755              		.global	timer2_empezar
 2757              	timer2_empezar:
 2758              	.LFB1:
  17:../timer2.c   **** 
  18:../timer2.c   **** void timer2_empezar()
  19:../timer2.c   **** {
 2759              		.loc 1 19 0
 2760              		.cfi_startproc
 2761              		@ Function supports interworking.
 2762              		@ args = 0, pretend = 0, frame = 0
 2763              		@ frame_needed = 1, uses_anonymous_args = 0
 2764 0060 0DC0A0E1 		mov	ip, sp
 2765              	.LCFI2:
 2766              		.cfi_def_cfa_register 12
 2767 0064 00D82DE9 		stmfd	sp!, {fp, ip, lr, pc}
 2768 0068 04B04CE2 		sub	fp, ip, #4
 2769              		.cfi_offset 14, -8
 2770              		.cfi_offset 13, -12
 2771              		.cfi_offset 11, -16
 2772              	.LCFI3:
 2773              		.cfi_def_cfa 11, 4
  20:../timer2.c   **** 	/* establecer update=manual (bit 13) + inverter=on (¿? será inverter off un cero en el bit 2 pone 
  21:../timer2.c   **** 	rTCON = 0x2000;
 2774              		.loc 1 21 0
 2775 006c 1C309FE5 		ldr	r3, .L5
 2776 0070 022AA0E3 		mov	r2, #8192
 2777 0074 002083E5 		str	r2, [r3, #0]
  22:../timer2.c   **** 
  23:../timer2.c   **** 	/* iniciar timer (bit 12) con auto-reload (bit 15)*/
  24:../timer2.c   **** 	rTCON = 0x9000;
 2778              		.loc 1 24 0
 2779 0078 10309FE5 		ldr	r3, .L5
 2780 007c 092AA0E3 		mov	r2, #36864
 2781 0080 002083E5 		str	r2, [r3, #0]
  25:../timer2.c   **** }
 2782              		.loc 1 25 0
 2783 0084 0CD04BE2 		sub	sp, fp, #12
 2784 0088 00689DE8 		ldmfd	sp, {fp, sp, lr}
 2785 008c 1EFF2FE1 		bx	lr
 2786              	.L6:
 2787              		.align	2
 2788              	.L5:
 2789 0090 0800D501 		.word	30736392
 2790              		.cfi_endproc
 2791              	.LFE1:
 2793              		.align	2
 2794              		.global	timer2_inicializar
 2796              	timer2_inicializar:
 2797              	.LFB2:
  26:../timer2.c   **** 
  27:../timer2.c   **** void timer2_inicializar()
  28:../timer2.c   **** {
 2798              		.loc 1 28 0
 2799              		.cfi_startproc
 2800              		@ Function supports interworking.
 2801              		@ args = 0, pretend = 0, frame = 0
 2802              		@ frame_needed = 1, uses_anonymous_args = 0
 2803 0094 0DC0A0E1 		mov	ip, sp
 2804              	.LCFI4:
 2805              		.cfi_def_cfa_register 12
 2806 0098 00D82DE9 		stmfd	sp!, {fp, ip, lr, pc}
 2807 009c 04B04CE2 		sub	fp, ip, #4
 2808              		.cfi_offset 14, -8
 2809              		.cfi_offset 13, -12
 2810              		.cfi_offset 11, -16
 2811              	.LCFI5:
 2812              		.cfi_def_cfa 11, 4
  29:../timer2.c   **** 	/* Configuraion controlador de interrupciones */
  30:../timer2.c   **** 	rINTMOD = 0x0; // Configura las linas como de tipo IRQ
 2813              		.loc 1 30 0
 2814 00a0 64309FE5 		ldr	r3, .L8
 2815 00a4 0020A0E3 		mov	r2, #0
 2816 00a8 002083E5 		str	r2, [r3, #0]
  31:../timer2.c   **** 	rINTCON = 0x1; // Habilita int. vectorizadas y la linea IRQ (FIQ no)
 2817              		.loc 1 31 0
 2818 00ac 1E36A0E3 		mov	r3, #31457280
 2819 00b0 0120A0E3 		mov	r2, #1
 2820 00b4 002083E5 		str	r2, [r3, #0]
  32:../timer2.c   **** 	rINTMSK = ~(BIT_GLOBAL | BIT_TIMER2); // Emascara todas las lineas excepto Timer0 y el bit global 
 2821              		.loc 1 32 0
 2822 00b8 50309FE5 		ldr	r3, .L8+4
 2823 00bc 50209FE5 		ldr	r2, .L8+8
 2824 00c0 002083E5 		str	r2, [r3, #0]
  33:../timer2.c   **** 
  34:../timer2.c   **** 	/* Establece la rutina de servicio para TIMER0 */
  35:../timer2.c   **** 	pISR_TIMER2 = (unsigned) timer2_ISR;
 2825              		.loc 1 35 0
 2826 00c4 4C309FE5 		ldr	r3, .L8+12
 2827 00c8 4C209FE5 		ldr	r2, .L8+16
 2828 00cc 002083E5 		str	r2, [r3, #0]
  36:../timer2.c   **** 
  37:../timer2.c   **** 	/* Configura el Timer0 */
  38:../timer2.c   **** 	rTCFG0 = 31; // ajusta el preescalado
 2829              		.loc 1 38 0
 2830 00d0 48309FE5 		ldr	r3, .L8+20
 2831 00d4 1F20A0E3 		mov	r2, #31
 2832 00d8 002083E5 		str	r2, [r3, #0]
  39:../timer2.c   **** 	rTCFG1 = 0x0; // selecciona la entrada del mux que proporciona el reloj. La 00 corresponde a un di
 2833              		.loc 1 39 0
 2834 00dc 40309FE5 		ldr	r3, .L8+24
 2835 00e0 0020A0E3 		mov	r2, #0
 2836 00e4 002083E5 		str	r2, [r3, #0]
  40:../timer2.c   **** 	rTCNTB2 = 1000;// valor inicial de cuenta (la cuenta es descendente)
 2837              		.loc 1 40 0
 2838 00e8 38309FE5 		ldr	r3, .L8+28
 2839 00ec FA2FA0E3 		mov	r2, #1000
 2840 00f0 002083E5 		str	r2, [r3, #0]
  41:../timer2.c   **** 	rTCMPB2 = 0;// valor de comparación
 2841              		.loc 1 41 0
 2842 00f4 30309FE5 		ldr	r3, .L8+32
 2843 00f8 0020A0E3 		mov	r2, #0
 2844 00fc 002083E5 		str	r2, [r3, #0]
  42:../timer2.c   **** }
 2845              		.loc 1 42 0
 2846 0100 0CD04BE2 		sub	sp, fp, #12
 2847 0104 00689DE8 		ldmfd	sp, {fp, sp, lr}
 2848 0108 1EFF2FE1 		bx	lr
 2849              	.L9:
 2850              		.align	2
 2851              	.L8:
 2852 010c 0800E001 		.word	31457288
 2853 0110 0C00E001 		.word	31457292
 2854 0114 FFF7FFFB 		.word	-67110913
 2855 0118 4CFF7F0C 		.word	209715020
 2856 011c 00000000 		.word	timer2_ISR
 2857 0120 0000D501 		.word	30736384
 2858 0124 0400D501 		.word	30736388
 2859 0128 2400D501 		.word	30736420
 2860 012c 2800D501 		.word	30736424
 2861              		.cfi_endproc
 2862              	.LFE2:
 2864              		.align	2
 2865              		.global	timer2_leer
 2867              	timer2_leer:
 2868              	.LFB3:
  43:../timer2.c   **** 
  44:../timer2.c   **** uint32_t timer2_leer()
  45:../timer2.c   **** {
 2869              		.loc 1 45 0
 2870              		.cfi_startproc
 2871              		@ Function supports interworking.
 2872              		@ args = 0, pretend = 0, frame = 0
 2873              		@ frame_needed = 1, uses_anonymous_args = 0
 2874 0130 0DC0A0E1 		mov	ip, sp
 2875              	.LCFI6:
 2876              		.cfi_def_cfa_register 12
 2877 0134 00D82DE9 		stmfd	sp!, {fp, ip, lr, pc}
 2878 0138 04B04CE2 		sub	fp, ip, #4
 2879              		.cfi_offset 14, -8
 2880              		.cfi_offset 13, -12
 2881              		.cfi_offset 11, -16
 2882              	.LCFI7:
 2883              		.cfi_def_cfa 11, 4
  46:../timer2.c   **** 	static uint32_t valor_leido;
  47:../timer2.c   **** 
  48:../timer2.c   **** 	valor_leido = timer2_num_int;
 2884              		.loc 1 48 0
 2885 013c 20309FE5 		ldr	r3, .L11
 2886 0140 002093E5 		ldr	r2, [r3, #0]
 2887 0144 1C309FE5 		ldr	r3, .L11+4
 2888 0148 002083E5 		str	r2, [r3, #0]
  49:../timer2.c   **** 
  50:../timer2.c   **** 	return valor_leido;
 2889              		.loc 1 50 0
 2890 014c 14309FE5 		ldr	r3, .L11+4
 2891 0150 003093E5 		ldr	r3, [r3, #0]
  51:../timer2.c   **** }
 2892              		.loc 1 51 0
 2893 0154 0300A0E1 		mov	r0, r3
 2894 0158 0CD04BE2 		sub	sp, fp, #12
 2895 015c 00689DE8 		ldmfd	sp, {fp, sp, lr}
 2896 0160 1EFF2FE1 		bx	lr
 2897              	.L12:
 2898              		.align	2
 2899              	.L11:
 2900 0164 00000000 		.word	timer2_num_int
 2901 0168 08000000 		.word	valor_leido.4003
 2902              		.cfi_endproc
 2903              	.LFE3:
 2905              		.bss
 2906              		.align	2
 2907              	valor_leido.4003:
 2908 0008 00000000 		.space	4
 2909              		.text
 2910              	.Letext0: